; Function Attrs: mustprogress uwtable
define dso_local void @_ZN27cmGlobalNinjaMultiGenerator16GetDocumentationEv(ptr dead_on_unwind noalias writable sret(%struct.cmDocumentationEntry) align 8 %0) local_unnamed_addr #3 align 2 personality ptr @__gxx_personality_v0 {
  %2 = alloca %"class.std::allocator", align 1
  tail call void @_ZN27cmGlobalNinjaMultiGenerator13GetActualNameB5cxx11Ev(ptr dead_on_unwind writable sret(%"class.std::__cxx11::basic_string") align 8 %0)
  %3 = getelementptr inbounds i8, ptr %0, i64 32
  call void @_ZNSaIcEC1Ev(ptr noundef nonnull align 1 dereferenceable(1) %2) #23
  %4 = invoke noundef ptr @_ZNSt7__cxx1112basic_stringIcSt11char_traitsIcESaIcEE13_M_local_dataEv(ptr noundef nonnull align 8 dereferenceable(32) %3)
          to label %.noexc unwind label %8

.noexc:                                           ; preds = %1
  invoke void @_ZNSt7__cxx1112basic_stringIcSt11char_traitsIcESaIcEE12_Alloc_hiderC1EPcRKS3_(ptr noundef nonnull align 8 dereferenceable(8) %3, ptr noundef %4, ptr noundef nonnull align 1 dereferenceable(1) %2)
          to label %.noexc2 unwind label %8

.noexc2:                                          ; preds = %.noexc
  invoke void @_ZNSt7__cxx1112basic_stringIcSt11char_traitsIcESaIcEE12_M_constructIPKcEEvT_S8_St20forward_iterator_tag(ptr noundef nonnull align 8 dereferenceable(32) %3, ptr noundef nonnull @.str.251, ptr noundef nonnull getelementptr inbounds ([38 x i8], ptr @.str.251, i64 0, i64 37))
          to label %_ZNSt7__cxx1112basic_stringIcSt11char_traitsIcESaIcEEC2IS3_EEPKcRKS3_.exit unwind label %5

5:                                                ; preds = %.noexc2
  %6 = landingpad { ptr, i32 }
          cleanup
  call void @_ZNSaIcED2Ev(ptr noundef nonnull align 1 dereferenceable(1) %3) #23
  br label %.body

_ZNSt7__cxx1112basic_stringIcSt11char_traitsIcESaIcEEC2IS3_EEPKcRKS3_.exit: ; preds = %.noexc2
  %7 = getelementptr inbounds i8, ptr %0, i64 64
  store i8 32, ptr %7, align 8
  call void @_ZNSaIcED1Ev(ptr noundef nonnull align 1 dereferenceable(1) %2) #23
  ret void

8:                                                ; preds = %.noexc, %1
  %9 = landingpad { ptr, i32 }
          cleanup
  br label %.body

.body:                                            ; preds = %5, %8
  %eh.lpad-body = phi { ptr, i32 } [ %9, %8 ], [ %6, %5 ]
  call void @_ZNSaIcED1Ev(ptr noundef nonnull align 1 dereferenceable(1) %2) #23
  call void @_ZNSt7__cxx1112basic_stringIcSt11char_traitsIcESaIcEED1Ev(ptr noundef nonnull align 8 dereferenceable(32) %0) #23
  resume { ptr, i32 } %eh.lpad-body
}